; Function Attrs: nofree norecurse nosync nounwind memory(argmem: readwrite) uwtable
define void @ossl_curve448_scalar_add(ptr noundef captures(none) %0, ptr noundef readonly captures(none) %1, ptr noundef readonly captures(none) %2) local_unnamed_addr #0 {
  br label %4

4:                                                ; preds = %3, %4
  %indvars.iv = phi i64 [ 0, %3 ], [ %indvars.iv.next, %4 ]
  %.01314 = phi i128 [ 0, %3 ], [ %15, %4 ]
  %5 = getelementptr inbounds nuw [7 x i64], ptr %1, i64 0, i64 %indvars.iv
  %6 = load i64, ptr %5, align 8, !tbaa !3
  %7 = zext i64 %6 to i128
  %8 = add nuw nsw i128 %.01314, %7
  %9 = getelementptr inbounds nuw [7 x i64], ptr %2, i64 0, i64 %indvars.iv
  %10 = load i64, ptr %9, align 8, !tbaa !3
  %11 = zext i64 %10 to i128
  %12 = add nuw nsw i128 %8, %11
  %13 = trunc i128 %12 to i64
  %14 = getelementptr inbounds nuw [7 x i64], ptr %0, i64 0, i64 %indvars.iv
  store i64 %13, ptr %14, align 8, !tbaa !3
  %15 = lshr i128 %12, 64
  %indvars.iv.next = add nuw nsw i64 %indvars.iv, 1
  %exitcond.not = icmp eq i64 %indvars.iv.next, 7
  br i1 %exitcond.not, label %.preheader, label %4, !llvm.loop !13

.preheader:                                       ; preds = %4, %.preheader
  %indvars.iv.i = phi i64 [ %indvars.iv.next.i, %.preheader ], [ 0, %4 ]
  %.02.i = phi i128 [ %25, %.preheader ], [ 0, %4 ]
  %16 = getelementptr inbounds nuw i64, ptr %0, i64 %indvars.iv.i
  %17 = load i64, ptr %16, align 8, !tbaa !3
  %18 = zext i64 %17 to i128
  %19 = add nsw i128 %.02.i, %18
  %20 = getelementptr inbounds nuw [7 x i64], ptr @sc_p, i64 0, i64 %indvars.iv.i
  %21 = load i64, ptr %20, align 8, !tbaa !3
  %22 = zext i64 %21 to i128
  %23 = sub nsw i128 %19, %22
  %24 = trunc i128 %23 to i64
  store i64 %24, ptr %16, align 8, !tbaa !3
  %25 = ashr i128 %23, 64
  %indvars.iv.next.i = add nuw nsw i64 %indvars.iv.i, 1
  %exitcond.not.i = icmp eq i64 %indvars.iv.next.i, 7
  br i1 %exitcond.not.i, label %26, label %.preheader, !llvm.loop !11

26:                                               ; preds = %.preheader
  %27 = trunc nuw nsw i128 %15 to i64
  %28 = trunc nsw i128 %25 to i64
  %29 = add nsw i64 %28, %27
  br label %30

30:                                               ; preds = %30, %26
  %indvars.iv6.i = phi i64 [ 0, %26 ], [ %indvars.iv.next7.i, %30 ]
  %.14.i = phi i128 [ 0, %26 ], [ %41, %30 ]
  %31 = getelementptr inbounds nuw [7 x i64], ptr %0, i64 0, i64 %indvars.iv6.i
  %32 = load i64, ptr %31, align 8, !tbaa !3
  %33 = zext i64 %32 to i128
  %34 = add nuw nsw i128 %.14.i, %33
  %35 = getelementptr inbounds nuw [7 x i64], ptr @sc_p, i64 0, i64 %indvars.iv6.i
  %36 = load i64, ptr %35, align 8, !tbaa !3
  %37 = and i64 %36, %29
  %38 = zext i64 %37 to i128
  %39 = add nuw nsw i128 %34, %38
  %40 = trunc i128 %39 to i64
  store i64 %40, ptr %31, align 8, !tbaa !3
  %41 = lshr i128 %39, 64
  %indvars.iv.next7.i = add nuw nsw i64 %indvars.iv6.i, 1
  %exitcond9.not.i = icmp eq i64 %indvars.iv.next7.i, 7
  br i1 %exitcond9.not.i, label %sc_subx.exit, label %30, !llvm.loop !12

sc_subx.exit:                                     ; preds = %30
  ret void
}